target datalayout = "e-m:e-p270:32:32-p271:32:32-p272:64:64-i64:64-i128:128-f80:128-n8:16:32:64-S128"
target triple = "x86_64-pc-linux-gnu"

%class.Expression = type { ptr, i32, i32, ptr }
%class.ExpressionComma = type { %class.Expression, ptr, ptr }

; Function Attrs: mustprogress uwtable
define dso_local void @_ZN15ExpressionCommaC2ERK10ExpressionS2_(ptr noundef nonnull align 8 dereferenceable(40) %0, ptr noundef nonnull align 8 dereferenceable(24) %1, ptr noundef nonnull align 8 dereferenceable(24) %2) unnamed_addr #4 align 2 {
  %4 = alloca ptr, align 8
  %5 = alloca ptr, align 8
  %6 = alloca ptr, align 8
  store ptr %0, ptr %4, align 8, !tbaa !45
  store ptr %1, ptr %5, align 8, !tbaa !4
  store ptr %2, ptr %6, align 8, !tbaa !4
  %7 = load ptr, ptr %4, align 8
  call void @_ZN10ExpressionC2E9eTermType(ptr noundef nonnull align 8 dereferenceable(24) %7, i32 noundef 4)
  store ptr getelementptr inbounds inrange(-16, 176) ({ [24 x ptr] }, ptr @_ZTV15ExpressionComma, i32 0, i32 0, i32 2), ptr %7, align 8, !tbaa !9
  %8 = getelementptr inbounds nuw %class.ExpressionComma, ptr %7, i32 0, i32 1
  %9 = load ptr, ptr %5, align 8, !tbaa !4
  store ptr %9, ptr %8, align 8, !tbaa !4
  %10 = getelementptr inbounds nuw %class.ExpressionComma, ptr %7, i32 0, i32 2
  %11 = load ptr, ptr %6, align 8, !tbaa !4
  store ptr %11, ptr %10, align 8, !tbaa !4
  ret void
}