; Function Attrs: mustprogress uwtable
define dso_local void @_ZN15ExpressionCommaC2ERK10ExpressionS2_(ptr noundef nonnull align 8 dereferenceable(40) %0, ptr noundef nonnull align 8 dereferenceable(24) %1, ptr noundef nonnull align 8 dereferenceable(24) %2) unnamed_addr #3 align 2 {
  tail call void @_ZN10ExpressionC2E9eTermType(ptr noundef nonnull align 8 dereferenceable(24) %0, i32 noundef 4)
  store ptr getelementptr inbounds nuw inrange(-16, 176) (i8, ptr @_ZTV15ExpressionComma, i64 16), ptr %0, align 8, !tbaa !4
  %4 = getelementptr inbounds nuw i8, ptr %0, i64 24
  store ptr %1, ptr %4, align 8, !tbaa !39
  %5 = getelementptr inbounds nuw i8, ptr %0, i64 32
  store ptr %2, ptr %5, align 8, !tbaa !39
  ret void
}